; Function Attrs: nounwind uwtable
define dso_local i32 @select_g_job_suspend(ptr noundef %0, i1 noundef zeroext %1) local_unnamed_addr #0 {
  %3 = load ptr, ptr @ops, align 8
  %4 = load i32, ptr @select_context_default, align 4
  %5 = sext i32 %4 to i64
  %6 = getelementptr inbounds %struct.slurm_select_ops_t, ptr %3, i64 %5, i32 11
  %7 = load ptr, ptr %6, align 8
  %8 = tail call i32 %7(ptr noundef %0, i1 noundef zeroext %1) #15
  ret i32 %8
}